target datalayout = "e-m:e-p270:32:32-p271:32:32-p272:64:64-i64:64-i128:128-f80:128-n8:16:32:64-S128"
target triple = "x86_64-unknown-linux-gnu"

%"class.hermes::hbc::BytecodeFunctionGenerator" = type { %"class.hermes::hbc::BytecodeInstructionGenerator.base", ptr, %"class.std::vector.0", i32, %"struct.hermes::hbc::DebugSourceLocation", %"class.std::vector.5", %"class.std::vector.10", %"class.hermes::OptValue", i8, i32, i8, i8, i8, %"class.std::vector.15" }
%"class.hermes::hbc::BytecodeInstructionGenerator.base" = type <{ %"class.std::vector", i8 }>
%"class.std::vector" = type { %"struct.std::_Vector_base" }
%"struct.std::_Vector_base" = type { %"struct.std::_Vector_base<unsigned char, std::allocator<unsigned char>>::_Vector_impl" }
%"struct.std::_Vector_base<unsigned char, std::allocator<unsigned char>>::_Vector_impl" = type { %"struct.std::_Vector_base<unsigned char, std::allocator<unsigned char>>::_Vector_impl_data" }
%"struct.std::_Vector_base<unsigned char, std::allocator<unsigned char>>::_Vector_impl_data" = type { ptr, ptr, ptr }
%"class.std::vector.0" = type { %"struct.std::_Vector_base.1" }
%"struct.std::_Vector_base.1" = type { %"struct.std::_Vector_base<hermes::hbc::HBCExceptionHandlerInfo, std::allocator<hermes::hbc::HBCExceptionHandlerInfo>>::_Vector_impl" }
%"struct.std::_Vector_base<hermes::hbc::HBCExceptionHandlerInfo, std::allocator<hermes::hbc::HBCExceptionHandlerInfo>>::_Vector_impl" = type { %"struct.std::_Vector_base<hermes::hbc::HBCExceptionHandlerInfo, std::allocator<hermes::hbc::HBCExceptionHandlerInfo>>::_Vector_impl_data" }
%"struct.std::_Vector_base<hermes::hbc::HBCExceptionHandlerInfo, std::allocator<hermes::hbc::HBCExceptionHandlerInfo>>::_Vector_impl_data" = type { ptr, ptr, ptr }
%"struct.hermes::hbc::DebugSourceLocation" = type { i32, i32, i32, i32, i32, i32, i32, i32 }
%"class.std::vector.5" = type { %"struct.std::_Vector_base.6" }
%"struct.std::_Vector_base.6" = type { %"struct.std::_Vector_base<hermes::hbc::DebugSourceLocation, std::allocator<hermes::hbc::DebugSourceLocation>>::_Vector_impl" }
%"struct.std::_Vector_base<hermes::hbc::DebugSourceLocation, std::allocator<hermes::hbc::DebugSourceLocation>>::_Vector_impl" = type { %"struct.std::_Vector_base<hermes::hbc::DebugSourceLocation, std::allocator<hermes::hbc::DebugSourceLocation>>::_Vector_impl_data" }
%"struct.std::_Vector_base<hermes::hbc::DebugSourceLocation, std::allocator<hermes::hbc::DebugSourceLocation>>::_Vector_impl_data" = type { ptr, ptr, ptr }
%"class.std::vector.10" = type { %"struct.std::_Vector_base.11" }
%"struct.std::_Vector_base.11" = type { %"struct.std::_Vector_base<hermes::hbc::DebugTextifiedCallee, std::allocator<hermes::hbc::DebugTextifiedCallee>>::_Vector_impl" }
%"struct.std::_Vector_base<hermes::hbc::DebugTextifiedCallee, std::allocator<hermes::hbc::DebugTextifiedCallee>>::_Vector_impl" = type { %"struct.std::_Vector_base<hermes::hbc::DebugTextifiedCallee, std::allocator<hermes::hbc::DebugTextifiedCallee>>::_Vector_impl_data" }
%"struct.std::_Vector_base<hermes::hbc::DebugTextifiedCallee, std::allocator<hermes::hbc::DebugTextifiedCallee>>::_Vector_impl_data" = type { ptr, ptr, ptr }
%"class.hermes::OptValue" = type <{ i32, i8, [3 x i8] }>
%"class.std::vector.15" = type { %"struct.std::_Vector_base.16" }
%"struct.std::_Vector_base.16" = type { %"struct.std::_Vector_base<unsigned int, std::allocator<unsigned int>>::_Vector_impl" }
%"struct.std::_Vector_base<unsigned int, std::allocator<unsigned int>>::_Vector_impl" = type { %"struct.std::_Vector_base<unsigned int, std::allocator<unsigned int>>::_Vector_impl_data" }
%"struct.std::_Vector_base<unsigned int, std::allocator<unsigned int>>::_Vector_impl_data" = type { ptr, ptr, ptr }
%"class.hermes::hbc::BytecodeModuleGenerator" = type <{ %"class.hermes::hbc::AllocationTable", %"class.hermes::hbc::AllocationTable.20", %"class.llvh::SetVector", %"class.llvh::DenseMap.38", %"class.llvh::DenseMap.41", %"struct.hermes::hbc::StringLiteralTable", %"class.hermes::bigint::UniquingBigIntTable", %"class.hermes::UniquingRegExpTable", %"struct.hermes::hbc::UniquingFilenameTable", i32, [4 x i8], %"class.std::vector.76", %"class.std::vector.76", %"class.std::vector.76", %"class.std::vector", %"class.std::vector", %"class.std::vector", %"class.llvh::DenseMap.81", %"struct.hermes::BytecodeGenerationOptions", i8, i8, i8, i8, i32, [4 x i8] }>
%"class.hermes::hbc::AllocationTable" = type { %"class.llvh::DenseMap", %"class.llvh::SmallVector" }
%"class.llvh::DenseMap" = type <{ ptr, i32, i32, i32, [4 x i8] }>
%"class.llvh::SmallVector" = type { %"class.llvh::SmallVectorImpl", %"struct.llvh::SmallVectorStorage" }
%"class.llvh::SmallVectorImpl" = type { %"class.llvh::SmallVectorTemplateBase" }
%"class.llvh::SmallVectorTemplateBase" = type { %"class.llvh::SmallVectorTemplateCommon" }
%"class.llvh::SmallVectorTemplateCommon" = type { %"class.llvh::SmallVectorBase" }
%"class.llvh::SmallVectorBase" = type { ptr, i32, i32 }
%"struct.llvh::SmallVectorStorage" = type { [8 x %"struct.llvh::AlignedCharArrayUnion"] }
%"struct.llvh::AlignedCharArrayUnion" = type { %"struct.llvh::AlignedCharArray" }
%"struct.llvh::AlignedCharArray" = type { [8 x i8] }
%"class.hermes::hbc::AllocationTable.20" = type { %"class.llvh::DenseMap.21", %"class.llvh::SmallVector.24" }
%"class.llvh::DenseMap.21" = type <{ ptr, i32, i32, i32, [4 x i8] }>
%"class.llvh::SmallVector.24" = type { %"class.llvh::SmallVectorImpl.25", %"struct.llvh::SmallVectorStorage.28" }
%"class.llvh::SmallVectorImpl.25" = type { %"class.llvh::SmallVectorTemplateBase.26" }
%"class.llvh::SmallVectorTemplateBase.26" = type { %"class.llvh::SmallVectorTemplateCommon.27" }
%"class.llvh::SmallVectorTemplateCommon.27" = type { %"class.llvh::SmallVectorBase" }
%"struct.llvh::SmallVectorStorage.28" = type { [8 x %"struct.llvh::AlignedCharArrayUnion.29"] }
%"struct.llvh::AlignedCharArrayUnion.29" = type { %"struct.llvh::AlignedCharArray" }
%"class.llvh::SetVector" = type { %"class.llvh::DenseSet", %"class.std::vector.33" }
%"class.llvh::DenseSet" = type { %"class.llvh::detail::DenseSetImpl" }
%"class.llvh::detail::DenseSetImpl" = type { %"class.llvh::DenseMap.30" }
%"class.llvh::DenseMap.30" = type <{ ptr, i32, i32, i32, [4 x i8] }>
%"class.std::vector.33" = type { %"struct.std::_Vector_base.34" }
%"struct.std::_Vector_base.34" = type { %"struct.std::_Vector_base<hermes::ScopeDesc *, std::allocator<hermes::ScopeDesc *>>::_Vector_impl" }
%"struct.std::_Vector_base<hermes::ScopeDesc *, std::allocator<hermes::ScopeDesc *>>::_Vector_impl" = type { %"struct.std::_Vector_base<hermes::ScopeDesc *, std::allocator<hermes::ScopeDesc *>>::_Vector_impl_data" }
%"struct.std::_Vector_base<hermes::ScopeDesc *, std::allocator<hermes::ScopeDesc *>>::_Vector_impl_data" = type { ptr, ptr, ptr }
%"class.llvh::DenseMap.38" = type <{ ptr, i32, i32, i32, [4 x i8] }>
%"class.llvh::DenseMap.41" = type <{ ptr, i32, i32, i32, [4 x i8] }>
%"struct.hermes::hbc::StringLiteralTable" = type { %"struct.hermes::hbc::StringLiteralIDMapping" }
%"struct.hermes::hbc::StringLiteralIDMapping" = type { %"class.hermes::hbc::ConsecutiveStringStorage", %"struct.hermes::StringSetVector", %"class.std::vector.55" }
%"class.hermes::hbc::ConsecutiveStringStorage" = type <{ %"class.std::vector.44", %"class.std::vector", i8, i8, [6 x i8] }>
%"class.std::vector.44" = type { %"struct.std::_Vector_base.45" }
%"struct.std::_Vector_base.45" = type { %"struct.std::_Vector_base<hermes::StringTableEntry, std::allocator<hermes::StringTableEntry>>::_Vector_impl" }
%"struct.std::_Vector_base<hermes::StringTableEntry, std::allocator<hermes::StringTableEntry>>::_Vector_impl" = type { %"struct.std::_Vector_base<hermes::StringTableEntry, std::allocator<hermes::StringTableEntry>>::_Vector_impl_data" }
%"struct.std::_Vector_base<hermes::StringTableEntry, std::allocator<hermes::StringTableEntry>>::_Vector_impl_data" = type { ptr, ptr, ptr }
%"struct.hermes::StringSetVector" = type { %"class.std::deque", %"class.llvh::DenseMap.52" }
%"class.std::deque" = type { %"class.std::_Deque_base" }
%"class.std::_Deque_base" = type { %"struct.std::_Deque_base<std::__cxx11::basic_string<char>, std::allocator<std::__cxx11::basic_string<char>>>::_Deque_impl" }
%"struct.std::_Deque_base<std::__cxx11::basic_string<char>, std::allocator<std::__cxx11::basic_string<char>>>::_Deque_impl" = type { %"struct.std::_Deque_base<std::__cxx11::basic_string<char>, std::allocator<std::__cxx11::basic_string<char>>>::_Deque_impl_data" }
%"struct.std::_Deque_base<std::__cxx11::basic_string<char>, std::allocator<std::__cxx11::basic_string<char>>>::_Deque_impl_data" = type { ptr, i64, %"struct.std::_Deque_iterator", %"struct.std::_Deque_iterator" }
%"struct.std::_Deque_iterator" = type { ptr, ptr, ptr, ptr }
%"class.llvh::DenseMap.52" = type <{ ptr, i32, i32, i32, [4 x i8] }>
%"class.std::vector.55" = type { %"struct.std::_Bvector_base" }
%"struct.std::_Bvector_base" = type { %"struct.std::_Bvector_base<std::allocator<bool>>::_Bvector_impl" }
%"struct.std::_Bvector_base<std::allocator<bool>>::_Bvector_impl" = type { %"struct.std::_Bvector_base<std::allocator<bool>>::_Bvector_impl_data" }
%"struct.std::_Bvector_base<std::allocator<bool>>::_Bvector_impl_data" = type { %"struct.std::_Bit_iterator", %"struct.std::_Bit_iterator", ptr }
%"struct.std::_Bit_iterator" = type { %"struct.std::_Bit_iterator_base.base", [4 x i8] }
%"struct.std::_Bit_iterator_base.base" = type <{ ptr, i32 }>
%"class.hermes::bigint::UniquingBigIntTable" = type { %"class.std::deque.59", %"class.llvh::DenseMap.65" }
%"class.std::deque.59" = type { %"class.std::_Deque_base.60" }
%"class.std::_Deque_base.60" = type { %"struct.std::_Deque_base<hermes::bigint::ParsedBigInt, std::allocator<hermes::bigint::ParsedBigInt>>::_Deque_impl" }
%"struct.std::_Deque_base<hermes::bigint::ParsedBigInt, std::allocator<hermes::bigint::ParsedBigInt>>::_Deque_impl" = type { %"struct.std::_Deque_base<hermes::bigint::ParsedBigInt, std::allocator<hermes::bigint::ParsedBigInt>>::_Deque_impl_data" }
%"struct.std::_Deque_base<hermes::bigint::ParsedBigInt, std::allocator<hermes::bigint::ParsedBigInt>>::_Deque_impl_data" = type { ptr, i64, %"struct.std::_Deque_iterator.64", %"struct.std::_Deque_iterator.64" }
%"struct.std::_Deque_iterator.64" = type { ptr, ptr, ptr, ptr }
%"class.llvh::DenseMap.65" = type <{ ptr, i32, i32, i32, [4 x i8] }>
%"class.hermes::UniquingRegExpTable" = type { %"class.std::vector.68", %"class.llvh::DenseMap.73" }
%"class.std::vector.68" = type { %"struct.std::_Vector_base.69" }
%"struct.std::_Vector_base.69" = type { %"struct.std::_Vector_base<hermes::CompiledRegExp *, std::allocator<hermes::CompiledRegExp *>>::_Vector_impl" }
%"struct.std::_Vector_base<hermes::CompiledRegExp *, std::allocator<hermes::CompiledRegExp *>>::_Vector_impl" = type { %"struct.std::_Vector_base<hermes::CompiledRegExp *, std::allocator<hermes::CompiledRegExp *>>::_Vector_impl_data" }
%"struct.std::_Vector_base<hermes::CompiledRegExp *, std::allocator<hermes::CompiledRegExp *>>::_Vector_impl_data" = type { ptr, ptr, ptr }
%"class.llvh::DenseMap.73" = type <{ ptr, i32, i32, i32, [4 x i8] }>
%"struct.hermes::hbc::UniquingFilenameTable" = type { %"struct.hermes::StringSetVector" }
%"class.std::vector.76" = type { %"struct.std::_Vector_base.77" }
%"struct.std::_Vector_base.77" = type { %"struct.std::_Vector_base<std::pair<unsigned int, unsigned int>, std::allocator<std::pair<unsigned int, unsigned int>>>::_Vector_impl" }
%"struct.std::_Vector_base<std::pair<unsigned int, unsigned int>, std::allocator<std::pair<unsigned int, unsigned int>>>::_Vector_impl" = type { %"struct.std::_Vector_base<std::pair<unsigned int, unsigned int>, std::allocator<std::pair<unsigned int, unsigned int>>>::_Vector_impl_data" }
%"struct.std::_Vector_base<std::pair<unsigned int, unsigned int>, std::allocator<std::pair<unsigned int, unsigned int>>>::_Vector_impl_data" = type { ptr, ptr, ptr }
%"class.llvh::DenseMap.81" = type <{ ptr, i32, i32, i32, [4 x i8] }>
%"struct.hermes::BytecodeGenerationOptions" = type <{ i32, i8, i8, i8, i8, i8, i8, i8, i8, i32, i8, [3 x i8] }>
%"class.hermes::Value" = type { i8, %"class.hermes::Type", %"class.llvh::SmallVector.84" }
%"class.hermes::Type" = type { i16, i16 }
%"class.llvh::SmallVector.84" = type { %"class.llvh::SmallVectorImpl.85", %"struct.llvh::SmallVectorStorage.88" }
%"class.llvh::SmallVectorImpl.85" = type { %"class.llvh::SmallVectorTemplateBase.86" }
%"class.llvh::SmallVectorTemplateBase.86" = type { %"class.llvh::SmallVectorTemplateCommon.87" }
%"class.llvh::SmallVectorTemplateCommon.87" = type { %"class.llvh::SmallVectorBase" }
%"struct.llvh::SmallVectorStorage.88" = type { [2 x %"struct.llvh::AlignedCharArrayUnion.89"] }
%"struct.llvh::AlignedCharArrayUnion.89" = type { %"struct.llvh::AlignedCharArray" }
%"class.std::shared_ptr" = type { %"class.std::__shared_ptr" }
%"class.std::__shared_ptr" = type { ptr, %"class.std::__shared_count" }
%"class.std::__shared_count" = type { ptr }
%"class.hermes::ScopeDesc" = type <{ %"class.hermes::Value", ptr, %"class.llvh::SmallVector.24", %"class.std::shared_ptr", ptr, %"class.llvh::SmallVector.101", i8, [7 x i8] }>
%"class.llvh::SmallVector.101" = type { %"class.llvh::SmallVectorImpl.102", %"struct.llvh::SmallVectorStorage.105" }
%"class.llvh::SmallVectorImpl.102" = type { %"class.llvh::SmallVectorTemplateBase.103" }
%"class.llvh::SmallVectorTemplateBase.103" = type { %"class.llvh::SmallVectorTemplateCommon.104" }
%"class.llvh::SmallVectorTemplateCommon.104" = type { %"class.llvh::SmallVectorBase" }
%"struct.llvh::SmallVectorStorage.105" = type { [8 x %"struct.llvh::AlignedCharArrayUnion.106"] }
%"struct.llvh::AlignedCharArrayUnion.106" = type { %"struct.llvh::AlignedCharArray" }
%"class.hermes::Context" = type { %"class.hermes::BacktrackingBumpPtrAllocator", %"class.hermes::BacktrackingBumpPtrAllocator", %"class.std::unique_ptr.112", %"class.hermes::StringTable", %"class.std::map", %"class.std::unique_ptr.126", ptr, i8, i8, i8, i32, i32, i8, i8, i8, i8, i8, i32, i8, i8, %"class.std::unique_ptr.134", %"class.std::vector.15", i32, i8, %"struct.hermes::CodeGenerationSettings", %"struct.hermes::OptimizationSettings", %"class.std::shared_ptr.146" }
%"class.hermes::BacktrackingBumpPtrAllocator" = type { %"class.std::vector.107", ptr }
%"class.std::vector.107" = type { %"struct.std::_Vector_base.108" }
%"struct.std::_Vector_base.108" = type { %"struct.std::_Vector_base<std::unique_ptr<hermes::BacktrackingBumpPtrAllocator::Slab>, std::allocator<std::unique_ptr<hermes::BacktrackingBumpPtrAllocator::Slab>>>::_Vector_impl" }
%"struct.std::_Vector_base<std::unique_ptr<hermes::BacktrackingBumpPtrAllocator::Slab>, std::allocator<std::unique_ptr<hermes::BacktrackingBumpPtrAllocator::Slab>>>::_Vector_impl" = type { %"struct.std::_Vector_base<std::unique_ptr<hermes::BacktrackingBumpPtrAllocator::Slab>, std::allocator<std::unique_ptr<hermes::BacktrackingBumpPtrAllocator::Slab>>>::_Vector_impl_data" }
%"struct.std::_Vector_base<std::unique_ptr<hermes::BacktrackingBumpPtrAllocator::Slab>, std::allocator<std::unique_ptr<hermes::BacktrackingBumpPtrAllocator::Slab>>>::_Vector_impl_data" = type { ptr, ptr, ptr }
%"class.std::unique_ptr.112" = type { %"struct.std::__uniq_ptr_data.113" }
%"struct.std::__uniq_ptr_data.113" = type { %"class.std::__uniq_ptr_impl.114" }
%"class.std::__uniq_ptr_impl.114" = type { %"class.std::tuple.115" }
%"class.std::tuple.115" = type { %"struct.std::_Tuple_impl.116" }
%"struct.std::_Tuple_impl.116" = type { %"struct.std::_Head_base.119" }
%"struct.std::_Head_base.119" = type { ptr }
%"class.hermes::StringTable" = type { ptr, %"class.llvh::DenseMap.120" }
%"class.llvh::DenseMap.120" = type <{ ptr, i32, i32, i32, [4 x i8] }>
%"class.std::map" = type { %"class.std::_Rb_tree" }
%"class.std::_Rb_tree" = type { %"struct.std::_Rb_tree<std::pair<hermes::UniqueString *, hermes::UniqueString *>, std::pair<const std::pair<hermes::UniqueString *, hermes::UniqueString *>, hermes::CompiledRegExp>, std::_Select1st<std::pair<const std::pair<hermes::UniqueString *, hermes::UniqueString *>, hermes::CompiledRegExp>>, std::less<std::pair<hermes::UniqueString *, hermes::UniqueString *>>>::_Rb_tree_impl" }
%"struct.std::_Rb_tree<std::pair<hermes::UniqueString *, hermes::UniqueString *>, std::pair<const std::pair<hermes::UniqueString *, hermes::UniqueString *>, hermes::CompiledRegExp>, std::_Select1st<std::pair<const std::pair<hermes::UniqueString *, hermes::UniqueString *>, hermes::CompiledRegExp>>, std::less<std::pair<hermes::UniqueString *, hermes::UniqueString *>>>::_Rb_tree_impl" = type { %"struct.std::_Rb_tree_key_compare", %"struct.std::_Rb_tree_header" }
%"struct.std::_Rb_tree_key_compare" = type { %"struct.std::less" }
%"struct.std::less" = type { i8 }
%"struct.std::_Rb_tree_header" = type { %"struct.std::_Rb_tree_node_base", i64 }
%"struct.std::_Rb_tree_node_base" = type { i32, ptr, ptr, ptr }
%"class.std::unique_ptr.126" = type { %"struct.std::__uniq_ptr_data.127" }
%"struct.std::__uniq_ptr_data.127" = type { %"class.std::__uniq_ptr_impl.128" }
%"class.std::__uniq_ptr_impl.128" = type { %"class.std::tuple.129" }
%"class.std::tuple.129" = type { %"struct.std::_Tuple_impl.130" }
%"struct.std::_Tuple_impl.130" = type { %"struct.std::_Head_base.133" }
%"struct.std::_Head_base.133" = type { ptr }
%"class.std::unique_ptr.134" = type { %"struct.std::__uniq_ptr_data.135" }
%"struct.std::__uniq_ptr_data.135" = type { %"class.std::__uniq_ptr_impl.136" }
%"class.std::__uniq_ptr_impl.136" = type { %"class.std::tuple.137" }
%"class.std::tuple.137" = type { %"struct.std::_Tuple_impl.138" }
%"struct.std::_Tuple_impl.138" = type { %"struct.std::_Head_base.141" }
%"struct.std::_Head_base.141" = type { ptr }
%"struct.hermes::CodeGenerationSettings" = type { i8, i8, i8, i8, i8, i8, i8, i8, i8, i8, [6 x i8], %"struct.hermes::CodeGenerationSettings_DumpSettings", %"struct.hermes::CodeGenerationSettings_DumpSettings", %"class.llvh::SmallDenseSet" }
%"struct.hermes::CodeGenerationSettings_DumpSettings" = type { i8, [7 x i8], %"class.llvh::SmallDenseSet", %"class.llvh::SmallDenseSet" }
%"class.llvh::SmallDenseSet" = type { %"class.llvh::detail::DenseSetImpl.142" }
%"class.llvh::detail::DenseSetImpl.142" = type { %"class.llvh::SmallDenseMap" }
%"class.llvh::SmallDenseMap" = type { i32, i32, %"struct.llvh::AlignedCharArrayUnion.144" }
%"struct.llvh::AlignedCharArrayUnion.144" = type { %"struct.llvh::AlignedCharArray.145" }
%"struct.llvh::AlignedCharArray.145" = type { [64 x i8] }
%"struct.hermes::OptimizationSettings" = type { i8, i8, i8, i8, i8, i8 }
%"class.std::shared_ptr.146" = type { %"class.std::__shared_ptr.147" }
%"class.std::__shared_ptr.147" = type { ptr, %"class.std::__shared_count" }

; Function Attrs: mustprogress nounwind uwtable
define linkonce_odr hidden noundef i32 @_ZNK6hermes7Context19getDebugInfoSettingEv(ptr noundef nonnull align 8 dereferenceable(656) %this) #0 comdat align 2 {
entry:
  %this.addr = alloca ptr, align 8
  store ptr %this, ptr %this.addr, align 8
  %this1 = load ptr, ptr %this.addr, align 8
  %debugInfoSetting_ = getelementptr inbounds %"class.hermes::Context", ptr %this1, i32 0, i32 22
  %0 = load i32, ptr %debugInfoSetting_, align 8
  ret i32 %0
}

; Function Attrs: mustprogress nounwind uwtable
define linkonce_odr hidden noundef ptr @_ZNK6hermes9ScopeDesc11getFunctionEv(ptr noundef nonnull align 8 dereferenceable(233) %this) #0 comdat align 2 {
entry:
  %this.addr = alloca ptr, align 8
  store ptr %this, ptr %this.addr, align 8
  %this1 = load ptr, ptr %this.addr, align 8
  %function_ = getelementptr inbounds %"class.hermes::ScopeDesc", ptr %this1, i32 0, i32 4
  %0 = load ptr, ptr %function_, align 8
  ret ptr %0
}

; Function Attrs: mustprogress nounwind uwtable
define linkonce_odr hidden noundef zeroext i1 @_ZNK6hermes9ScopeDesc11hasFunctionEv(ptr noundef nonnull align 8 dereferenceable(233) %this) #0 comdat align 2 {
entry:
  %this.addr = alloca ptr, align 8
  store ptr %this, ptr %this.addr, align 8
  %this1 = load ptr, ptr %this.addr, align 8
  %function_ = getelementptr inbounds %"class.hermes::ScopeDesc", ptr %this1, i32 0, i32 4
  %0 = load ptr, ptr %function_, align 8
  %tobool = icmp ne ptr %0, null
  ret i1 %tobool
}

; Function Attrs: mustprogress nounwind uwtable
define hidden noundef i32 @_ZN6hermes3hbc23BytecodeModuleGenerator12addScopeDescEPNS_9ScopeDescE(ptr noundef nonnull align 8 dereferenceable(964) %this, ptr noundef %S) #0 align 2 {
entry:
  %this.addr = alloca ptr, align 8
  %S.addr = alloca ptr, align 8
  store ptr %this, ptr %this.addr, align 8
  store ptr %S, ptr %S.addr, align 8
  %this1 = load ptr, ptr %this.addr, align 8
  %0 = load ptr, ptr %S.addr, align 8
  %tobool = icmp ne ptr %0, null
  br i1 %tobool, label %land.lhs.true, label %if.end

land.lhs.true:                                    ; preds = %entry
  %1 = load ptr, ptr %S.addr, align 8
  %call = call noundef zeroext i1 @_ZNK6hermes9ScopeDesc11hasFunctionEv(ptr noundef nonnull align 8 dereferenceable(233) %1)
  br i1 %call, label %land.lhs.true2, label %if.end

land.lhs.true2:                                   ; preds = %land.lhs.true
  %2 = load ptr, ptr %S.addr, align 8
  %call3 = call noundef ptr @_ZNK6hermes9ScopeDesc11getFunctionEv(ptr noundef nonnull align 8 dereferenceable(233) %2)
  %call4 = call noundef nonnull align 8 dereferenceable(656) ptr @_ZNK6hermes8Function10getContextEv(ptr noundef nonnull align 8 dereferenceable(304) %call3)
  %call5 = call noundef i32 @_ZNK6hermes7Context19getDebugInfoSettingEv(ptr noundef nonnull align 8 dereferenceable(656) %call4)
  %cmp = icmp ne i32 %call5, 2
  br i1 %cmp, label %if.then, label %if.end

if.then:                                          ; preds = %land.lhs.true2
  store ptr null, ptr %S.addr, align 8
  br label %if.end

if.end:                                           ; preds = %if.then, %land.lhs.true2, %land.lhs.true, %entry
  %newScopeDescs_ = getelementptr inbounds %"class.hermes::hbc::BytecodeModuleGenerator", ptr %this1, i32 0, i32 2
  %call6 = call noundef zeroext i1 @_ZN4llvh9SetVectorIPN6hermes9ScopeDescESt6vectorIS3_SaIS3_EENS_8DenseSetIS3_NS_12DenseMapInfoIS3_EEEEE6insertERKS3_(ptr noundef nonnull align 8 dereferenceable(48) %newScopeDescs_, ptr noundef nonnull align 8 dereferenceable(8) %S.addr)
  %scopeDescIDMap_ = getelementptr inbounds %"class.hermes::hbc::BytecodeModuleGenerator", ptr %this1, i32 0, i32 1
  %3 = load ptr, ptr %S.addr, align 8
  %call7 = call noundef i32 @_ZN6hermes3hbc15AllocationTableIPNS_9ScopeDescEE8allocateES3_(ptr noundef nonnull align 8 dereferenceable(104) %scopeDescIDMap_, ptr noundef %3)
  ret i32 %call7
}

; Function Attrs: mustprogress nounwind uwtable
define hidden noundef i32 @_ZN6hermes3hbc25BytecodeFunctionGenerator14getScopeDescIDEPNS_9ScopeDescE(ptr noundef nonnull align 8 dereferenceable(200) %this, ptr noundef %S) #0 align 2 {
entry:
  %this.addr = alloca ptr, align 8
  %S.addr = alloca ptr, align 8
  store ptr %this, ptr %this.addr, align 8
  store ptr %S, ptr %S.addr, align 8
  %this1 = load ptr, ptr %this.addr, align 8
  %BMGen_ = getelementptr inbounds %"class.hermes::hbc::BytecodeFunctionGenerator", ptr %this1, i32 0, i32 1
  %0 = load ptr, ptr %BMGen_, align 8
  %1 = load ptr, ptr %S.addr, align 8
  %call = call noundef i32 @_ZN6hermes3hbc23BytecodeModuleGenerator12addScopeDescEPNS_9ScopeDescE(ptr noundef nonnull align 8 dereferenceable(964) %0, ptr noundef %1)
  ret i32 %call
}