; Function Attrs: mustprogress nounwind uwtable
define hidden noundef i32 @_ZN6hermes3hbc25BytecodeFunctionGenerator14getScopeDescIDEPNS_9ScopeDescE(ptr noundef nonnull readonly align 8 captures(none) dereferenceable(200) %this, ptr noundef %S) local_unnamed_addr #0 align 2 {
entry:
  %S.addr.i = alloca ptr, align 8
  %BMGen_ = getelementptr inbounds nuw i8, ptr %this, i64 32
  %0 = load ptr, ptr %BMGen_, align 8
  call void @llvm.lifetime.start.p0(i64 8, ptr nonnull %S.addr.i)
  store ptr %S, ptr %S.addr.i, align 8
  %tobool.not.i = icmp eq ptr %S, null
  br i1 %tobool.not.i, label %_ZN6hermes3hbc23BytecodeModuleGenerator12addScopeDescEPNS_9ScopeDescE.exit, label %land.lhs.true.i

land.lhs.true.i:                                  ; preds = %entry
  %function_.i.i = getelementptr inbounds nuw i8, ptr %S, i64 144
  %1 = load ptr, ptr %function_.i.i, align 8
  %tobool.i.not.i = icmp eq ptr %1, null
  br i1 %tobool.i.not.i, label %_ZN6hermes3hbc23BytecodeModuleGenerator12addScopeDescEPNS_9ScopeDescE.exit, label %land.lhs.true2.i

land.lhs.true2.i:                                 ; preds = %land.lhs.true.i
  %call4.i = tail call noundef nonnull align 8 dereferenceable(656) ptr @_ZNK6hermes8Function10getContextEv(ptr noundef nonnull align 8 dereferenceable(304) %1) #20
  %debugInfoSetting_.i.i = getelementptr inbounds nuw i8, ptr %call4.i, i64 232
  %2 = load i32, ptr %debugInfoSetting_.i.i, align 8
  %cmp.not.i = icmp eq i32 %2, 2
  br i1 %cmp.not.i, label %_ZN6hermes3hbc23BytecodeModuleGenerator12addScopeDescEPNS_9ScopeDescE.exit, label %if.then.i

if.then.i:                                        ; preds = %land.lhs.true2.i
  store ptr null, ptr %S.addr.i, align 8
  br label %_ZN6hermes3hbc23BytecodeModuleGenerator12addScopeDescEPNS_9ScopeDescE.exit

_ZN6hermes3hbc23BytecodeModuleGenerator12addScopeDescEPNS_9ScopeDescE.exit: ; preds = %entry, %land.lhs.true.i, %land.lhs.true2.i, %if.then.i
  %newScopeDescs_.i = getelementptr inbounds nuw i8, ptr %0, i64 208
  %call6.i = call noundef zeroext i1 @_ZN4llvh9SetVectorIPN6hermes9ScopeDescESt6vectorIS3_SaIS3_EENS_8DenseSetIS3_NS_12DenseMapInfoIS3_EEEEE6insertERKS3_(ptr noundef nonnull align 8 dereferenceable(48) %newScopeDescs_.i, ptr noundef nonnull align 8 dereferenceable(8) %S.addr.i)
  %scopeDescIDMap_.i = getelementptr inbounds nuw i8, ptr %0, i64 104
  %3 = load ptr, ptr %S.addr.i, align 8
  %call7.i = call noundef i32 @_ZN6hermes3hbc15AllocationTableIPNS_9ScopeDescEE8allocateES3_(ptr noundef nonnull align 8 dereferenceable(104) %scopeDescIDMap_.i, ptr noundef %3)
  call void @llvm.lifetime.end.p0(i64 8, ptr nonnull %S.addr.i)
  ret i32 %call7.i
}